target datalayout = "e-m:e-p270:32:32-p271:32:32-p272:64:64-i64:64-i128:128-f80:128-n8:16:32:64-S128"
target triple = "x86_64-pc-linux-gnu"

@.str = private unnamed_addr constant [31 x i8] c"../openssl/test/cmp_ctx_test.c\00", align 1
@.str.50 = private unnamed_addr constant [17 x i8] c"?provider=legacy\00", align 1
@.str.51 = private unnamed_addr constant [7 x i8] c"libctx\00", align 1
@.str.52 = private unnamed_addr constant [7 x i8] c"cmpctx\00", align 1
@.str.53 = private unnamed_addr constant [33 x i8] c"OSSL_CMP_CTX_get0_libctx(cmpctx)\00", align 1
@.str.54 = private unnamed_addr constant [6 x i8] c"propq\00", align 1
@.str.55 = private unnamed_addr constant [32 x i8] c"OSSL_CMP_CTX_get0_propq(cmpctx)\00", align 1

; Function Attrs: nounwind uwtable
define internal i32 @test_CTX_libctx_propq() #0 {
  %1 = alloca ptr, align 8
  %2 = alloca ptr, align 8
  %3 = alloca ptr, align 8
  %4 = alloca i32, align 4
  call void @llvm.lifetime.start.p0(i64 8, ptr %1) #5
  %5 = call ptr @OSSL_LIB_CTX_new()
  store ptr %5, ptr %1, align 8, !tbaa !4
  call void @llvm.lifetime.start.p0(i64 8, ptr %2) #5
  store ptr @.str.50, ptr %2, align 8, !tbaa !9
  call void @llvm.lifetime.start.p0(i64 8, ptr %3) #5
  %6 = load ptr, ptr %1, align 8, !tbaa !4
  %7 = load ptr, ptr %2, align 8, !tbaa !9
  %8 = call ptr @OSSL_CMP_CTX_new(ptr noundef %6, ptr noundef %7)
  store ptr %8, ptr %3, align 8, !tbaa !11
  call void @llvm.lifetime.start.p0(i64 4, ptr %4) #5
  %9 = load ptr, ptr %1, align 8, !tbaa !4
  %10 = call i32 @test_ptr(ptr noundef @.str, i32 noundef 116, ptr noundef @.str.51, ptr noundef %9)
  %11 = icmp ne i32 %10, 0
  br i1 %11, label %12, label %28

12:                                               ; preds = %0
  %13 = load ptr, ptr %3, align 8, !tbaa !11
  %14 = call i32 @test_ptr(ptr noundef @.str, i32 noundef 117, ptr noundef @.str.52, ptr noundef %13)
  %15 = icmp ne i32 %14, 0
  br i1 %15, label %16, label %28

16:                                               ; preds = %12
  %17 = load ptr, ptr %1, align 8, !tbaa !4
  %18 = load ptr, ptr %3, align 8, !tbaa !11
  %19 = call ptr @OSSL_CMP_CTX_get0_libctx(ptr noundef %18)
  %20 = call i32 @test_ptr_eq(ptr noundef @.str, i32 noundef 118, ptr noundef @.str.51, ptr noundef @.str.53, ptr noundef %17, ptr noundef %19)
  %21 = icmp ne i32 %20, 0
  br i1 %21, label %22, label %28

22:                                               ; preds = %16
  %23 = load ptr, ptr %2, align 8, !tbaa !9
  %24 = load ptr, ptr %3, align 8, !tbaa !11
  %25 = call ptr @OSSL_CMP_CTX_get0_propq(ptr noundef %24)
  %26 = call i32 @test_str_eq(ptr noundef @.str, i32 noundef 119, ptr noundef @.str.54, ptr noundef @.str.55, ptr noundef %23, ptr noundef %25)
  %27 = icmp ne i32 %26, 0
  br label %28

28:                                               ; preds = %22, %16, %12, %0
  %29 = phi i1 [ false, %16 ], [ false, %12 ], [ false, %0 ], [ %27, %22 ]
  %30 = zext i1 %29 to i32
  store i32 %30, ptr %4, align 4, !tbaa !13
  %31 = load ptr, ptr %3, align 8, !tbaa !11
  call void @OSSL_CMP_CTX_free(ptr noundef %31)
  %32 = load ptr, ptr %1, align 8, !tbaa !4
  call void @OSSL_LIB_CTX_free(ptr noundef %32)
  %33 = load i32, ptr %4, align 4, !tbaa !13
  call void @llvm.lifetime.end.p0(i64 4, ptr %4) #5
  call void @llvm.lifetime.end.p0(i64 8, ptr %3) #5
  call void @llvm.lifetime.end.p0(i64 8, ptr %2) #5
  call void @llvm.lifetime.end.p0(i64 8, ptr %1) #5
  ret i32 %33
}