; Function Attrs: nounwind uwtable
define internal range(i32 0, 2) i32 @test_CTX_libctx_propq() #1 {
  %1 = tail call ptr @OSSL_LIB_CTX_new() #6
  %2 = tail call ptr @OSSL_CMP_CTX_new(ptr noundef %1, ptr noundef nonnull @.str.50) #6
  %3 = tail call i32 @test_ptr(ptr noundef nonnull @.str, i32 noundef 116, ptr noundef nonnull @.str.51, ptr noundef %1) #6
  %.not = icmp eq i32 %3, 0
  br i1 %.not, label %14, label %4

4:                                                ; preds = %0
  %5 = tail call i32 @test_ptr(ptr noundef nonnull @.str, i32 noundef 117, ptr noundef nonnull @.str.52, ptr noundef %2) #6
  %.not10 = icmp eq i32 %5, 0
  br i1 %.not10, label %14, label %6

6:                                                ; preds = %4
  %7 = tail call ptr @OSSL_CMP_CTX_get0_libctx(ptr noundef %2) #6
  %8 = tail call i32 @test_ptr_eq(ptr noundef nonnull @.str, i32 noundef 118, ptr noundef nonnull @.str.51, ptr noundef nonnull @.str.53, ptr noundef %1, ptr noundef %7) #6
  %.not11 = icmp eq i32 %8, 0
  br i1 %.not11, label %14, label %9

9:                                                ; preds = %6
  %10 = tail call ptr @OSSL_CMP_CTX_get0_propq(ptr noundef %2) #6
  %11 = tail call i32 @test_str_eq(ptr noundef nonnull @.str, i32 noundef 119, ptr noundef nonnull @.str.54, ptr noundef nonnull @.str.55, ptr noundef nonnull @.str.50, ptr noundef %10) #6
  %12 = icmp ne i32 %11, 0
  %13 = zext i1 %12 to i32
  br label %14

14:                                               ; preds = %9, %6, %4, %0
  %15 = phi i32 [ 0, %6 ], [ 0, %4 ], [ 0, %0 ], [ %13, %9 ]
  tail call void @OSSL_CMP_CTX_free(ptr noundef %2) #6
  tail call void @OSSL_LIB_CTX_free(ptr noundef %1) #6
  ret i32 %15
}